; ModuleID = '12/1552.c'
source_filename = "12/1552.c"
target datalayout = "e-m:e-p270:32:32-p271:32:32-p272:64:64-i64:64-f80:128-n8:16:32:64-S128"
target triple = "x86_64-pc-linux-gnu"

@.str = private unnamed_addr constant [3 x i8] c"%d\00", align 1
@.str.1 = private unnamed_addr constant [4 x i8] c" %d\00", align 1
@.str.2 = private unnamed_addr constant [2 x i8] c"\0A\00", align 1
@.str.3 = private unnamed_addr constant [4 x i8] c"%d\0A\00", align 1

; Function Attrs: noinline nounwind uwtable
define dso_local i32 @main() #0 {
  %1 = alloca i32, align 4
  %2 = alloca [16 x i32], align 16
  %3 = alloca i32, align 4
  %4 = alloca i32, align 4
  %5 = alloca i32, align 4
  %6 = alloca i32, align 4
  %7 = alloca i32, align 4
  %8 = alloca i32, align 4
  %9 = alloca i32, align 4
  %10 = alloca i32, align 4
  %11 = alloca i32, align 4
  store i32 0, i32* %1, align 4
  br label %12

12:                                               ; preds = %118, %0
  %13 = call i32 (i8*, ...) @__isoc99_scanf(i8* getelementptr inbounds ([3 x i8], [3 x i8]* @.str, i64 0, i64 0), i32* %3)
  %14 = load i32, i32* %3, align 4
  %15 = icmp eq i32 %14, -1
  br i1 %15, label %16, label %17

16:                                               ; preds = %12
  br label %121

17:                                               ; preds = %12
  %18 = load i32, i32* %3, align 4
  %19 = getelementptr inbounds [16 x i32], [16 x i32]* %2, i64 0, i64 0
  store i32 %18, i32* %19, align 16
  store i32 1, i32* %6, align 4
  br label %20

20:                                               ; preds = %28, %17
  %21 = call i32 (i8*, ...) @__isoc99_scanf(i8* getelementptr inbounds ([4 x i8], [4 x i8]* @.str.1, i64 0, i64 0), i32* %4)
  %22 = load i32, i32* %4, align 4
  %23 = load i32, i32* %6, align 4
  %24 = sext i32 %23 to i64
  %25 = getelementptr inbounds [16 x i32], [16 x i32]* %2, i64 0, i64 %24
  store i32 %22, i32* %25, align 4
  %26 = load i32, i32* %6, align 4
  %27 = add nsw i32 %26, 1
  store i32 %27, i32* %6, align 4
  br label %28

28:                                               ; preds = %20
  %29 = load i32, i32* %4, align 4
  %30 = icmp ne i32 %29, 0
  br i1 %30, label %20, label %31

31:                                               ; preds = %28
  %32 = call i32 (i8*, ...) @__isoc99_scanf(i8* getelementptr inbounds ([2 x i8], [2 x i8]* @.str.2, i64 0, i64 0))
  %33 = load i32, i32* %6, align 4
  %34 = sub nsw i32 %33, 2
  store i32 %34, i32* %11, align 4
  store i32 0, i32* %6, align 4
  br label %35

35:                                               ; preds = %77, %31
  %36 = load i32, i32* %6, align 4
  %37 = load i32, i32* %11, align 4
  %38 = icmp sle i32 %36, %37
  br i1 %38, label %39, label %80

39:                                               ; preds = %35
  store i32 0, i32* %7, align 4
  br label %40

40:                                               ; preds = %74, %39
  %41 = load i32, i32* %7, align 4
  %42 = load i32, i32* %11, align 4
  %43 = sub nsw i32 %42, 1
  %44 = icmp sle i32 %41, %43
  br i1 %44, label %45, label %77

45:                                               ; preds = %40
  %46 = load i32, i32* %7, align 4
  %47 = sext i32 %46 to i64
  %48 = getelementptr inbounds [16 x i32], [16 x i32]* %2, i64 0, i64 %47
  %49 = load i32, i32* %48, align 4
  %50 = load i32, i32* %7, align 4
  %51 = add nsw i32 %50, 1
  %52 = sext i32 %51 to i64
  %53 = getelementptr inbounds [16 x i32], [16 x i32]* %2, i64 0, i64 %52
  %54 = load i32, i32* %53, align 4
  %55 = icmp sgt i32 %49, %54
  br i1 %55, label %56, label %74

56:                                               ; preds = %45
  %57 = load i32, i32* %7, align 4
  %58 = add nsw i32 %57, 1
  %59 = sext i32 %58 to i64
  %60 = getelementptr inbounds [16 x i32], [16 x i32]* %2, i64 0, i64 %59
  %61 = load i32, i32* %60, align 4
  store i32 %61, i32* %5, align 4
  %62 = load i32, i32* %7, align 4
  %63 = sext i32 %62 to i64
  %64 = getelementptr inbounds [16 x i32], [16 x i32]* %2, i64 0, i64 %63
  %65 = load i32, i32* %64, align 4
  %66 = load i32, i32* %7, align 4
  %67 = add nsw i32 %66, 1
  %68 = sext i32 %67 to i64
  %69 = getelementptr inbounds [16 x i32], [16 x i32]* %2, i64 0, i64 %68
  store i32 %65, i32* %69, align 4
  %70 = load i32, i32* %5, align 4
  %71 = load i32, i32* %7, align 4
  %72 = sext i32 %71 to i64
  %73 = getelementptr inbounds [16 x i32], [16 x i32]* %2, i64 0, i64 %72
  store i32 %70, i32* %73, align 4
  br label %74

74:                                               ; preds = %56, %45
  %75 = load i32, i32* %7, align 4
  %76 = add nsw i32 %75, 1
  store i32 %76, i32* %7, align 4
  br label %40

77:                                               ; preds = %40
  %78 = load i32, i32* %6, align 4
  %79 = add nsw i32 %78, 1
  store i32 %79, i32* %6, align 4
  br label %35

80:                                               ; preds = %35
  store i32 0, i32* %6, align 4
  store i32 0, i32* %10, align 4
  br label %81

81:                                               ; preds = %112, %80
  %82 = load i32, i32* %6, align 4
  %83 = load i32, i32* %11, align 4
  %84 = sub nsw i32 %83, 1
  %85 = icmp sle i32 %82, %84
  br i1 %85, label %86, label %115

86:                                               ; preds = %81
  %87 = load i32, i32* %11, align 4
  %88 = load i32, i32* %6, align 4
  %89 = sub nsw i32 %87, %88
  store i32 %89, i32* %7, align 4
  store i32 0, i32* %8, align 4
  br label %90

90:                                               ; preds = %109, %86
  %91 = load i32, i32* %8, align 4
  %92 = load i32, i32* %7, align 4
  %93 = sub nsw i32 %92, 1
  %94 = icmp sle i32 %91, %93
  br i1 %94, label %95, label %112

95:                                               ; preds = %90
  %96 = load i32, i32* %7, align 4
  %97 = sext i32 %96 to i64
  %98 = getelementptr inbounds [16 x i32], [16 x i32]* %2, i64 0, i64 %97
  %99 = load i32, i32* %98, align 4
  %100 = load i32, i32* %8, align 4
  %101 = sext i32 %100 to i64
  %102 = getelementptr inbounds [16 x i32], [16 x i32]* %2, i64 0, i64 %101
  %103 = load i32, i32* %102, align 4
  %104 = mul nsw i32 2, %103
  %105 = icmp eq i32 %99, %104
  br i1 %105, label %106, label %109

106:                                              ; preds = %95
  %107 = load i32, i32* %10, align 4
  %108 = add nsw i32 %107, 1
  store i32 %108, i32* %10, align 4
  br label %109

109:                                              ; preds = %106, %95
  %110 = load i32, i32* %8, align 4
  %111 = add nsw i32 %110, 1
  store i32 %111, i32* %8, align 4
  br label %90

112:                                              ; preds = %90
  %113 = load i32, i32* %6, align 4
  %114 = add nsw i32 %113, 1
  store i32 %114, i32* %6, align 4
  br label %81

115:                                              ; preds = %81
  %116 = load i32, i32* %10, align 4
  %117 = call i32 (i8*, ...) @printf(i8* getelementptr inbounds ([4 x i8], [4 x i8]* @.str.3, i64 0, i64 0), i32 %116)
  br label %118

118:                                              ; preds = %115
  %119 = load i32, i32* %3, align 4
  %120 = icmp ne i32 %119, -1
  br i1 %120, label %12, label %121

121:                                              ; preds = %118, %16
  %122 = load i32, i32* %1, align 4
  ret i32 %122
}

declare dso_local i32 @__isoc99_scanf(i8*, ...) #1

declare dso_local i32 @printf(i8*, ...) #1


!llvm.module.flags = !{!0}
!llvm.ident = !{!1}

!0 = !{i32 1, !"wchar_size", i32 4}
!1 = !{!"clang version 10.0.0-4ubuntu1 "}
